target datalayout = "e-m:e-p270:32:32-p271:32:32-p272:64:64-i64:64-i128:128-f80:128-n8:16:32:64-S128"
target triple = "x86_64-pc-linux-gnu"

@.str.9 = private unnamed_addr constant [29 x i8] c"could not open file \22%s\22: %m\00", align 1

; Function Attrs: nounwind uwtable
define internal i32 @pre_sync_fname(ptr noundef %0, i1 noundef zeroext %1) #0 {
  %3 = alloca i32, align 4
  %4 = alloca ptr, align 8
  %5 = alloca i8, align 1
  %6 = alloca i32, align 4
  %7 = alloca i32, align 4
  store ptr %0, ptr %4, align 8
  %8 = zext i1 %1 to i8
  store i8 %8, ptr %5, align 1
  call void @llvm.lifetime.start.p0(i64 4, ptr %6) #9
  %9 = load ptr, ptr %4, align 8
  %10 = call i32 (ptr, i32, ...) @open(ptr noundef %9, i32 noundef 0, i32 noundef 0)
  store i32 %10, ptr %6, align 4
  %11 = load i32, ptr %6, align 4
  %12 = icmp slt i32 %11, 0
  br i1 %12, label %13, label %27

13:                                               ; preds = %2
  %14 = call ptr @__errno_location() #10
  %15 = load i32, ptr %14, align 4
  %16 = icmp eq i32 %15, 13
  br i1 %16, label %24, label %17

17:                                               ; preds = %13
  %18 = load i8, ptr %5, align 1, !range !5, !noundef !6
  %19 = trunc i8 %18 to i1
  br i1 %19, label %20, label %25

20:                                               ; preds = %17
  %21 = call ptr @__errno_location() #10
  %22 = load i32, ptr %21, align 4
  %23 = icmp eq i32 %22, 21
  br i1 %23, label %24, label %25

24:                                               ; preds = %20, %13
  store i32 0, ptr %3, align 4
  store i32 1, ptr %7, align 4
  br label %32

25:                                               ; preds = %20, %17
  %26 = load ptr, ptr %4, align 8
  call void (i32, i32, ptr, ...) @pg_log_generic(i32 noundef 4, i32 noundef 0, ptr noundef @.str.9, ptr noundef %26)
  store i32 -1, ptr %3, align 4
  store i32 1, ptr %7, align 4
  br label %32

27:                                               ; preds = %2
  %28 = load i32, ptr %6, align 4
  %29 = call i32 @sync_file_range(i32 noundef %28, i64 noundef 0, i64 noundef 0, i32 noundef 2)
  %30 = load i32, ptr %6, align 4
  %31 = call i32 @close(i32 noundef %30)
  store i32 0, ptr %3, align 4
  store i32 1, ptr %7, align 4
  br label %32

32:                                               ; preds = %27, %25, %24
  call void @llvm.lifetime.end.p0(i64 4, ptr %6) #9
  %33 = load i32, ptr %3, align 4
  ret i32 %33
}