; Function Attrs: nounwind uwtable
define internal range(i32 -1, 1) i32 @pre_sync_fname(ptr noundef %0, i1 noundef zeroext %1) #0 {
  %3 = tail call i32 (ptr, i32, ...) @open(ptr noundef %0, i32 noundef 0, i32 noundef 0) #11
  %4 = icmp slt i32 %3, 0
  br i1 %4, label %5, label %11

5:                                                ; preds = %2
  %6 = tail call ptr @__errno_location() #12
  %7 = load i32, ptr %6, align 4
  %8 = icmp eq i32 %7, 13
  %9 = icmp eq i32 %7, 21
  %or.cond = and i1 %1, %9
  %or.cond8 = or i1 %8, %or.cond
  br i1 %or.cond8, label %14, label %10

10:                                               ; preds = %5
  tail call void (i32, i32, ptr, ...) @pg_log_generic(i32 noundef 4, i32 noundef 0, ptr noundef nonnull @.str.9, ptr noundef %0) #11
  br label %14

11:                                               ; preds = %2
  %12 = tail call i32 @sync_file_range(i32 noundef %3, i64 noundef 0, i64 noundef 0, i32 noundef 2) #11
  %13 = tail call i32 @close(i32 noundef %3) #11
  br label %14

14:                                               ; preds = %5, %11, %10
  %.0 = phi i32 [ -1, %10 ], [ 0, %11 ], [ 0, %5 ]
  ret i32 %.0
}